target datalayout = "e-m:e-p270:32:32-p271:32:32-p272:64:64-i64:64-i128:128-f80:128-n8:16:32:64-S128"
target triple = "x86_64-pc-linux-gnu"

@hf_9P_qidpath = internal global i32 0, align 4
@hf_9P_qidvers = internal global i32 0, align 4
@hf_9P_qidtype = internal global i32 0, align 4
@hf_9P_qidtype_dir = internal global i32 0, align 4
@hf_9P_qidtype_append = internal global i32 0, align 4
@hf_9P_qidtype_exclusive = internal global i32 0, align 4
@hf_9P_qidtype_mount = internal global i32 0, align 4
@hf_9P_qidtype_auth_file = internal global i32 0, align 4
@hf_9P_qidtype_temp_file = internal global i32 0, align 4
@ett_9P_qid = internal global i32 0, align 4
@ett_9P_qidtype = internal global i32 0, align 4
@.str.544 = private unnamed_addr constant [33 x i8] c"Qid type=0x%02x vers=%d path=%lu\00", align 1

; Function Attrs: null_pointer_is_valid sspstrong uwtable
define internal void @dissect_9P_qid(ptr noundef %0, ptr noundef %1, i32 noundef %2) #0 {
  %4 = alloca ptr, align 8
  %5 = alloca ptr, align 8
  %6 = alloca i32, align 4
  %7 = alloca ptr, align 8
  %8 = alloca ptr, align 8
  %9 = alloca ptr, align 8
  %10 = alloca i64, align 8
  %11 = alloca i32, align 4
  %12 = alloca i8, align 1
  %13 = alloca i32, align 4
  store ptr %0, ptr %4, align 8
  store ptr %1, ptr %5, align 8
  store i32 %2, ptr %6, align 4
  call void @llvm.lifetime.start.p0(i64 8, ptr %7) #7
  call void @llvm.lifetime.start.p0(i64 8, ptr %8) #7
  call void @llvm.lifetime.start.p0(i64 8, ptr %9) #7
  call void @llvm.lifetime.start.p0(i64 8, ptr %10) #7
  call void @llvm.lifetime.start.p0(i64 4, ptr %11) #7
  call void @llvm.lifetime.start.p0(i64 1, ptr %12) #7
  %14 = load ptr, ptr %5, align 8
  %15 = icmp ne ptr %14, null
  br i1 %15, label %17, label %16

16:                                               ; preds = %3
  store i32 1, ptr %13, align 4
  br label %91

17:                                               ; preds = %3
  %18 = load ptr, ptr %4, align 8
  %19 = load i32, ptr %6, align 4
  %20 = call zeroext i8 @tvb_get_uint8(ptr noundef %18, i32 noundef %19)
  store i8 %20, ptr %12, align 1
  %21 = load ptr, ptr %4, align 8
  %22 = load i32, ptr %6, align 4
  %23 = add i32 %22, 1
  %24 = call zeroext i16 @tvb_get_letohs(ptr noundef %21, i32 noundef %23)
  %25 = zext i16 %24 to i32
  store i32 %25, ptr %11, align 4
  %26 = load ptr, ptr %4, align 8
  %27 = load i32, ptr %6, align 4
  %28 = add i32 %27, 1
  %29 = add i32 %28, 4
  %30 = call i64 @tvb_get_letoh64(ptr noundef %26, i32 noundef %29)
  store i64 %30, ptr %10, align 8
  %31 = load ptr, ptr %5, align 8
  %32 = load ptr, ptr %4, align 8
  %33 = load i32, ptr %6, align 4
  %34 = load i32, ptr @ett_9P_qid, align 4
  %35 = load i8, ptr %12, align 1
  %36 = zext i8 %35 to i32
  %37 = load i32, ptr %11, align 4
  %38 = load i64, ptr %10, align 8
  %39 = call ptr (ptr, ptr, i32, i32, i32, ptr, ptr, ...) @proto_tree_add_subtree_format(ptr noundef %31, ptr noundef %32, i32 noundef %33, i32 noundef 13, i32 noundef %34, ptr noundef null, ptr noundef @.str.544, i32 noundef %36, i32 noundef %37, i64 noundef %38)
  store ptr %39, ptr %8, align 8
  %40 = load ptr, ptr %8, align 8
  %41 = load i32, ptr @hf_9P_qidtype, align 4
  %42 = load ptr, ptr %4, align 8
  %43 = load i32, ptr %6, align 4
  %44 = call ptr @proto_tree_add_item(ptr noundef %40, i32 noundef %41, ptr noundef %42, i32 noundef %43, i32 noundef 1, i32 noundef -2147483648)
  store ptr %44, ptr %7, align 8
  %45 = load ptr, ptr %7, align 8
  %46 = load i32, ptr @ett_9P_qidtype, align 4
  %47 = call ptr @proto_item_add_subtree(ptr noundef %45, i32 noundef %46)
  store ptr %47, ptr %9, align 8
  %48 = load ptr, ptr %9, align 8
  %49 = load i32, ptr @hf_9P_qidtype_dir, align 4
  %50 = load ptr, ptr %4, align 8
  %51 = load i32, ptr %6, align 4
  %52 = call ptr @proto_tree_add_item(ptr noundef %48, i32 noundef %49, ptr noundef %50, i32 noundef %51, i32 noundef 1, i32 noundef -2147483648)
  %53 = load ptr, ptr %9, align 8
  %54 = load i32, ptr @hf_9P_qidtype_append, align 4
  %55 = load ptr, ptr %4, align 8
  %56 = load i32, ptr %6, align 4
  %57 = call ptr @proto_tree_add_item(ptr noundef %53, i32 noundef %54, ptr noundef %55, i32 noundef %56, i32 noundef 1, i32 noundef -2147483648)
  %58 = load ptr, ptr %9, align 8
  %59 = load i32, ptr @hf_9P_qidtype_exclusive, align 4
  %60 = load ptr, ptr %4, align 8
  %61 = load i32, ptr %6, align 4
  %62 = call ptr @proto_tree_add_item(ptr noundef %58, i32 noundef %59, ptr noundef %60, i32 noundef %61, i32 noundef 1, i32 noundef -2147483648)
  %63 = load ptr, ptr %9, align 8
  %64 = load i32, ptr @hf_9P_qidtype_mount, align 4
  %65 = load ptr, ptr %4, align 8
  %66 = load i32, ptr %6, align 4
  %67 = call ptr @proto_tree_add_item(ptr noundef %63, i32 noundef %64, ptr noundef %65, i32 noundef %66, i32 noundef 1, i32 noundef -2147483648)
  %68 = load ptr, ptr %9, align 8
  %69 = load i32, ptr @hf_9P_qidtype_auth_file, align 4
  %70 = load ptr, ptr %4, align 8
  %71 = load i32, ptr %6, align 4
  %72 = call ptr @proto_tree_add_item(ptr noundef %68, i32 noundef %69, ptr noundef %70, i32 noundef %71, i32 noundef 1, i32 noundef -2147483648)
  %73 = load ptr, ptr %9, align 8
  %74 = load i32, ptr @hf_9P_qidtype_temp_file, align 4
  %75 = load ptr, ptr %4, align 8
  %76 = load i32, ptr %6, align 4
  %77 = call ptr @proto_tree_add_item(ptr noundef %73, i32 noundef %74, ptr noundef %75, i32 noundef %76, i32 noundef 1, i32 noundef -2147483648)
  %78 = load ptr, ptr %8, align 8
  %79 = load i32, ptr @hf_9P_qidvers, align 4
  %80 = load ptr, ptr %4, align 8
  %81 = load i32, ptr %6, align 4
  %82 = add i32 %81, 1
  %83 = call ptr @proto_tree_add_item(ptr noundef %78, i32 noundef %79, ptr noundef %80, i32 noundef %82, i32 noundef 4, i32 noundef -2147483648)
  %84 = load ptr, ptr %8, align 8
  %85 = load i32, ptr @hf_9P_qidpath, align 4
  %86 = load ptr, ptr %4, align 8
  %87 = load i32, ptr %6, align 4
  %88 = add i32 %87, 1
  %89 = add i32 %88, 4
  %90 = call ptr @proto_tree_add_item(ptr noundef %84, i32 noundef %85, ptr noundef %86, i32 noundef %89, i32 noundef 8, i32 noundef -2147483648)
  store i32 0, ptr %13, align 4
  br label %91

91:                                               ; preds = %17, %16
  call void @llvm.lifetime.end.p0(i64 1, ptr %12) #7
  call void @llvm.lifetime.end.p0(i64 4, ptr %11) #7
  call void @llvm.lifetime.end.p0(i64 8, ptr %10) #7
  call void @llvm.lifetime.end.p0(i64 8, ptr %9) #7
  call void @llvm.lifetime.end.p0(i64 8, ptr %8) #7
  call void @llvm.lifetime.end.p0(i64 8, ptr %7) #7
  %92 = load i32, ptr %13, align 4
  switch i32 %92, label %94 [
    i32 0, label %93
    i32 1, label %93
  ]

93:                                               ; preds = %91, %91
  ret void

94:                                               ; preds = %91
  unreachable
}