; Function Attrs: null_pointer_is_valid sspstrong uwtable
define internal fastcc void @dissect_9P_qid(ptr noundef %0, ptr noundef %1, i32 noundef %2) unnamed_addr #0 {
  %.not = icmp eq ptr %1, null
  br i1 %.not, label %34, label %4

4:                                                ; preds = %3
  %5 = tail call zeroext i8 @tvb_get_uint8(ptr noundef %0, i32 noundef %2)
  %6 = add i32 %2, 1
  %7 = tail call zeroext i16 @tvb_get_letohs(ptr noundef %0, i32 noundef %6)
  %8 = zext i16 %7 to i32
  %9 = add i32 %2, 5
  %10 = tail call i64 @tvb_get_letoh64(ptr noundef %0, i32 noundef %9)
  %11 = load i32, ptr @ett_9P_qid, align 4
  %12 = zext i8 %5 to i32
  %13 = tail call ptr (ptr, ptr, i32, i32, i32, ptr, ptr, ...) @proto_tree_add_subtree_format(ptr noundef nonnull %1, ptr noundef %0, i32 noundef %2, i32 noundef 13, i32 noundef %11, ptr noundef null, ptr noundef nonnull @.str.544, i32 noundef %12, i32 noundef %8, i64 noundef %10)
  %14 = load i32, ptr @hf_9P_qidtype, align 4
  %15 = tail call ptr @proto_tree_add_item(ptr noundef %13, i32 noundef %14, ptr noundef %0, i32 noundef %2, i32 noundef 1, i32 noundef -2147483648)
  %16 = load i32, ptr @ett_9P_qidtype, align 4
  %17 = tail call ptr @proto_item_add_subtree(ptr noundef %15, i32 noundef %16)
  %18 = load i32, ptr @hf_9P_qidtype_dir, align 4
  %19 = tail call ptr @proto_tree_add_item(ptr noundef %17, i32 noundef %18, ptr noundef %0, i32 noundef %2, i32 noundef 1, i32 noundef -2147483648)
  %20 = load i32, ptr @hf_9P_qidtype_append, align 4
  %21 = tail call ptr @proto_tree_add_item(ptr noundef %17, i32 noundef %20, ptr noundef %0, i32 noundef %2, i32 noundef 1, i32 noundef -2147483648)
  %22 = load i32, ptr @hf_9P_qidtype_exclusive, align 4
  %23 = tail call ptr @proto_tree_add_item(ptr noundef %17, i32 noundef %22, ptr noundef %0, i32 noundef %2, i32 noundef 1, i32 noundef -2147483648)
  %24 = load i32, ptr @hf_9P_qidtype_mount, align 4
  %25 = tail call ptr @proto_tree_add_item(ptr noundef %17, i32 noundef %24, ptr noundef %0, i32 noundef %2, i32 noundef 1, i32 noundef -2147483648)
  %26 = load i32, ptr @hf_9P_qidtype_auth_file, align 4
  %27 = tail call ptr @proto_tree_add_item(ptr noundef %17, i32 noundef %26, ptr noundef %0, i32 noundef %2, i32 noundef 1, i32 noundef -2147483648)
  %28 = load i32, ptr @hf_9P_qidtype_temp_file, align 4
  %29 = tail call ptr @proto_tree_add_item(ptr noundef %17, i32 noundef %28, ptr noundef %0, i32 noundef %2, i32 noundef 1, i32 noundef -2147483648)
  %30 = load i32, ptr @hf_9P_qidvers, align 4
  %31 = tail call ptr @proto_tree_add_item(ptr noundef %13, i32 noundef %30, ptr noundef %0, i32 noundef %6, i32 noundef 4, i32 noundef -2147483648)
  %32 = load i32, ptr @hf_9P_qidpath, align 4
  %33 = tail call ptr @proto_tree_add_item(ptr noundef %13, i32 noundef %32, ptr noundef %0, i32 noundef %9, i32 noundef 8, i32 noundef -2147483648)
  br label %34

34:                                               ; preds = %3, %4
  ret void
}